; Function Attrs: inlinehint mustprogress uwtable
define internal fastcc void @_ZN2cvL13parallel_for_ERKNS_5RangeESt8functionIFvS2_EEd(ptr noundef nonnull align 4 dereferenceable(8) %0, ptr noundef nonnull %1, double noundef %2) unnamed_addr #6 personality ptr @__gxx_personality_v0 {
  %4 = alloca %"class.cv::ParallelLoopBodyLambdaWrapper", align 8
  %5 = alloca %"class.std::function", align 8
  call void @llvm.lifetime.start.p0(i64 40, ptr nonnull %4) #21
  %6 = getelementptr inbounds nuw i8, ptr %5, i64 16
  %7 = getelementptr inbounds nuw i8, ptr %5, i64 24
  %8 = getelementptr inbounds nuw i8, ptr %1, i64 16
  call void @llvm.memset.p0.i64(ptr noundef nonnull align 8 dereferenceable(32) %5, i8 0, i64 32, i1 false)
  %9 = load ptr, ptr %8, align 8, !tbaa !40
  %.not.i.i.not.i = icmp eq ptr %9, null
  br i1 %.not.i.i.not.i, label %_ZNSt8functionIFvRKN2cv5RangeEEEC2ERKS5_.exit.thread, label %12

_ZNSt8functionIFvRKN2cv5RangeEEEC2ERKS5_.exit.thread: ; preds = %3
  store ptr getelementptr inbounds nuw inrange(-16, 24) (i8, ptr @_ZTVN2cv29ParallelLoopBodyLambdaWrapperE, i64 16), ptr %4, align 8, !tbaa !41
  %10 = getelementptr inbounds nuw i8, ptr %4, i64 8
  %11 = getelementptr inbounds nuw i8, ptr %4, i64 24
  call void @llvm.memset.p0.i64(ptr noundef nonnull align 8 dereferenceable(32) %10, i8 0, i64 32, i1 false)
  br label %_ZN2cv29ParallelLoopBodyLambdaWrapperC2ESt8functionIFvRKNS_5RangeEEE.exit

12:                                               ; preds = %3
  %13 = invoke noundef zeroext i1 %9(ptr noundef nonnull align 8 dereferenceable(32) %5, ptr noundef nonnull align 8 dereferenceable(32) %1, i32 noundef 2)
          to label %_ZNSt8functionIFvRKN2cv5RangeEEEC2ERKS5_.exit unwind label %14

14:                                               ; preds = %12
  %15 = landingpad { ptr, i32 }
          cleanup
  %16 = load ptr, ptr %6, align 8, !tbaa !40
  %.not.i.i = icmp eq ptr %16, null
  br i1 %.not.i.i, label %common.resume, label %17

17:                                               ; preds = %14
  %18 = invoke noundef zeroext i1 %16(ptr noundef nonnull align 8 dereferenceable(32) %5, ptr noundef nonnull align 8 dereferenceable(32) %5, i32 noundef 3)
          to label %common.resume unwind label %19

19:                                               ; preds = %17
  %20 = landingpad { ptr, i32 }
          catch ptr null
  %21 = extractvalue { ptr, i32 } %20, 0
  call void @__clang_call_terminate(ptr %21) #22
  unreachable

common.resume:                                    ; preds = %14, %17, %_ZNSt14_Function_baseD2Ev.exit8
  %common.resume.op = phi { ptr, i32 } [ %.pn, %_ZNSt14_Function_baseD2Ev.exit8 ], [ %15, %17 ], [ %15, %14 ]
  resume { ptr, i32 } %common.resume.op

_ZNSt8functionIFvRKN2cv5RangeEEEC2ERKS5_.exit:    ; preds = %12
  %22 = getelementptr inbounds nuw i8, ptr %1, i64 24
  %23 = load ptr, ptr %22, align 8, !tbaa !37
  store ptr %23, ptr %7, align 8, !tbaa !37
  %24 = load ptr, ptr %8, align 8, !tbaa !40
  store ptr %24, ptr %6, align 8, !tbaa !40
  store ptr getelementptr inbounds nuw inrange(-16, 24) (i8, ptr @_ZTVN2cv29ParallelLoopBodyLambdaWrapperE, i64 16), ptr %4, align 8, !tbaa !41
  %25 = getelementptr inbounds nuw i8, ptr %4, i64 8
  %26 = getelementptr inbounds nuw i8, ptr %4, i64 24
  %27 = getelementptr inbounds nuw i8, ptr %4, i64 32
  call void @llvm.memset.p0.i64(ptr noundef nonnull align 8 dereferenceable(32) %25, i8 0, i64 32, i1 false)
  %.not.i.i.not.i.i = icmp eq ptr %24, null
  br i1 %.not.i.i.not.i.i, label %_ZN2cv29ParallelLoopBodyLambdaWrapperC2ESt8functionIFvRKNS_5RangeEEE.exit, label %28

28:                                               ; preds = %_ZNSt8functionIFvRKN2cv5RangeEEEC2ERKS5_.exit
  %29 = invoke noundef zeroext i1 %24(ptr noundef nonnull align 8 dereferenceable(32) %25, ptr noundef nonnull align 8 dereferenceable(32) %5, i32 noundef 2)
          to label %30 unwind label %33

30:                                               ; preds = %28
  %31 = load ptr, ptr %7, align 8, !tbaa !37
  store ptr %31, ptr %27, align 8, !tbaa !37
  %32 = load ptr, ptr %6, align 8, !tbaa !40
  store ptr %32, ptr %26, align 8, !tbaa !40
  br label %_ZN2cv29ParallelLoopBodyLambdaWrapperC2ESt8functionIFvRKNS_5RangeEEE.exit

33:                                               ; preds = %28
  %34 = landingpad { ptr, i32 }
          cleanup
  %35 = load ptr, ptr %26, align 8, !tbaa !40
  %.not.i.i.i = icmp eq ptr %35, null
  br i1 %.not.i.i.i, label %.body.i, label %36

36:                                               ; preds = %33
  %37 = invoke noundef zeroext i1 %35(ptr noundef nonnull align 8 dereferenceable(32) %25, ptr noundef nonnull align 8 dereferenceable(32) %25, i32 noundef 3)
          to label %.body.i unwind label %38

38:                                               ; preds = %36
  %39 = landingpad { ptr, i32 }
          catch ptr null
  %40 = extractvalue { ptr, i32 } %39, 0
  call void @__clang_call_terminate(ptr %40) #22
  unreachable

.body.i:                                          ; preds = %36, %33
  call void @_ZN2cv16ParallelLoopBodyD2Ev(ptr noundef nonnull align 8 dereferenceable(40) %4) #21
  br label %.body

_ZN2cv29ParallelLoopBodyLambdaWrapperC2ESt8functionIFvRKNS_5RangeEEE.exit: ; preds = %_ZNSt8functionIFvRKN2cv5RangeEEEC2ERKS5_.exit.thread, %30, %_ZNSt8functionIFvRKN2cv5RangeEEEC2ERKS5_.exit
  %41 = phi ptr [ %11, %_ZNSt8functionIFvRKN2cv5RangeEEEC2ERKS5_.exit.thread ], [ %26, %30 ], [ %26, %_ZNSt8functionIFvRKN2cv5RangeEEEC2ERKS5_.exit ]
  %42 = phi ptr [ %10, %_ZNSt8functionIFvRKN2cv5RangeEEEC2ERKS5_.exit.thread ], [ %25, %30 ], [ %25, %_ZNSt8functionIFvRKN2cv5RangeEEEC2ERKS5_.exit ]
  invoke void @_ZN2cv13parallel_for_ERKNS_5RangeERKNS_16ParallelLoopBodyEd(ptr noundef nonnull align 4 dereferenceable(8) %0, ptr noundef nonnull align 8 dereferenceable(8) %4, double noundef %2)
          to label %43 unwind label %56

43:                                               ; preds = %_ZN2cv29ParallelLoopBodyLambdaWrapperC2ESt8functionIFvRKNS_5RangeEEE.exit
  store ptr getelementptr inbounds nuw inrange(-16, 24) (i8, ptr @_ZTVN2cv29ParallelLoopBodyLambdaWrapperE, i64 16), ptr %4, align 8, !tbaa !41
  %44 = load ptr, ptr %41, align 8, !tbaa !40
  %.not.i.i5 = icmp eq ptr %44, null
  br i1 %.not.i.i5, label %_ZN2cv29ParallelLoopBodyLambdaWrapperD2Ev.exit, label %45

45:                                               ; preds = %43
  %46 = invoke noundef zeroext i1 %44(ptr noundef nonnull align 8 dereferenceable(32) %42, ptr noundef nonnull align 8 dereferenceable(32) %42, i32 noundef 3)
          to label %_ZN2cv29ParallelLoopBodyLambdaWrapperD2Ev.exit unwind label %47

47:                                               ; preds = %45
  %48 = landingpad { ptr, i32 }
          catch ptr null
  %49 = extractvalue { ptr, i32 } %48, 0
  call void @__clang_call_terminate(ptr %49) #22
  unreachable

_ZN2cv29ParallelLoopBodyLambdaWrapperD2Ev.exit:   ; preds = %43, %45
  call void @_ZN2cv16ParallelLoopBodyD2Ev(ptr noundef nonnull align 8 dereferenceable(40) %4) #21
  %50 = load ptr, ptr %6, align 8, !tbaa !40
  %.not.i = icmp eq ptr %50, null
  br i1 %.not.i, label %_ZNSt14_Function_baseD2Ev.exit, label %51

51:                                               ; preds = %_ZN2cv29ParallelLoopBodyLambdaWrapperD2Ev.exit
  %52 = invoke noundef zeroext i1 %50(ptr noundef nonnull align 8 dereferenceable(32) %5, ptr noundef nonnull align 8 dereferenceable(32) %5, i32 noundef 3)
          to label %_ZNSt14_Function_baseD2Ev.exit unwind label %53

53:                                               ; preds = %51
  %54 = landingpad { ptr, i32 }
          catch ptr null
  %55 = extractvalue { ptr, i32 } %54, 0
  call void @__clang_call_terminate(ptr %55) #22
  unreachable

_ZNSt14_Function_baseD2Ev.exit:                   ; preds = %_ZN2cv29ParallelLoopBodyLambdaWrapperD2Ev.exit, %51
  call void @llvm.lifetime.end.p0(i64 40, ptr nonnull %4) #21
  ret void

56:                                               ; preds = %_ZN2cv29ParallelLoopBodyLambdaWrapperC2ESt8functionIFvRKNS_5RangeEEE.exit
  %57 = landingpad { ptr, i32 }
          cleanup
  call void @_ZN2cv29ParallelLoopBodyLambdaWrapperD2Ev(ptr noundef nonnull align 8 dereferenceable(40) %4) #21
  br label %.body

.body:                                            ; preds = %.body.i, %56
  %.pn = phi { ptr, i32 } [ %57, %56 ], [ %34, %.body.i ]
  %58 = load ptr, ptr %6, align 8, !tbaa !40
  %.not.i7 = icmp eq ptr %58, null
  br i1 %.not.i7, label %_ZNSt14_Function_baseD2Ev.exit8, label %59

59:                                               ; preds = %.body
  %60 = invoke noundef zeroext i1 %58(ptr noundef nonnull align 8 dereferenceable(32) %5, ptr noundef nonnull align 8 dereferenceable(32) %5, i32 noundef 3)
          to label %_ZNSt14_Function_baseD2Ev.exit8 unwind label %61

61:                                               ; preds = %59
  %62 = landingpad { ptr, i32 }
          catch ptr null
  %63 = extractvalue { ptr, i32 } %62, 0
  call void @__clang_call_terminate(ptr %63) #22
  unreachable

_ZNSt14_Function_baseD2Ev.exit8:                  ; preds = %.body, %59
  call void @llvm.lifetime.end.p0(i64 40, ptr nonnull %4) #21
  br label %common.resume
}